; Function Attrs: mustprogress uwtable
define void @_ZN6duckdb14MetadataReader8ReadDataEPhm(ptr noundef nonnull align 8 dereferenceable(112) %0, ptr noundef writeonly captures(none) %1, i64 noundef %2) unnamed_addr #2 align 2 {
  %4 = getelementptr inbounds nuw i8, ptr %0, i64 88
  %5 = getelementptr inbounds nuw i8, ptr %0, i64 104
  %6 = load i64, ptr %4, align 8, !tbaa !206
  %7 = add i64 %6, %2
  %8 = load i64, ptr %5, align 8, !tbaa !194
  %9 = icmp ugt i64 %7, %8
  br i1 %9, label %.lr.ph, label %._crit_edge

.lr.ph:                                           ; preds = %3
  %10 = getelementptr inbounds nuw i8, ptr %0, i64 48
  %11 = getelementptr inbounds nuw i8, ptr %0, i64 80
  %12 = getelementptr inbounds nuw i8, ptr %0, i64 8
  br label %13

13:                                               ; preds = %.lr.ph, %37
  %14 = phi i64 [ %8, %.lr.ph ], [ %40, %37 ]
  %15 = phi i64 [ %6, %.lr.ph ], [ %38, %37 ]
  %.017 = phi ptr [ %1, %.lr.ph ], [ %.1, %37 ]
  %.01216 = phi i64 [ %2, %.lr.ph ], [ %.113, %37 ]
  %.not = icmp eq i64 %14, %15
  br i1 %.not, label %37, label %16

16:                                               ; preds = %13
  %17 = sub i64 %14, %15
  tail call void @_ZNK6duckdb12optional_ptrINS_10FileBufferELb1EE10CheckValidEv(ptr noundef nonnull align 8 dereferenceable(8) %10)
  %18 = load ptr, ptr %10, align 8, !tbaa !104
  %19 = getelementptr inbounds nuw i8, ptr %18, i64 16
  %20 = load ptr, ptr %19, align 8, !tbaa !106
  %21 = load i64, ptr %11, align 8, !tbaa !207
  %22 = load ptr, ptr %12, align 8, !tbaa !190
  %23 = load ptr, ptr %22, align 8, !tbaa !43
  %24 = getelementptr inbounds nuw i8, ptr %23, i64 120
  %25 = tail call noundef i64 @_ZNK6duckdb12optional_idx8GetIndexEv(ptr noundef nonnull align 8 dereferenceable(8) %24)
  %26 = add i64 %25, -8
  %27 = lshr i64 %26, 6
  %28 = and i64 %27, 288230376151711736
  %29 = mul i64 %28, %21
  %30 = getelementptr inbounds nuw i8, ptr %20, i64 %29
  %31 = load i64, ptr %4, align 8, !tbaa !206
  %32 = getelementptr inbounds nuw i8, ptr %30, i64 %31
  tail call void @llvm.memcpy.p0.p0.i64(ptr align 1 %.017, ptr align 1 %32, i64 %17, i1 false)
  %33 = sub i64 %.01216, %17
  %34 = getelementptr inbounds nuw i8, ptr %.017, i64 %17
  %35 = load i64, ptr %4, align 8, !tbaa !206
  %36 = add i64 %35, %33
  store i64 %36, ptr %4, align 8, !tbaa !206
  br label %37

37:                                               ; preds = %16, %13
  %.113 = phi i64 [ %33, %16 ], [ %.01216, %13 ]
  %.1 = phi ptr [ %34, %16 ], [ %.017, %13 ]
  tail call void @_ZN6duckdb14MetadataReader13ReadNextBlockEv(ptr noundef nonnull align 8 dereferenceable(112) %0)
  %38 = load i64, ptr %4, align 8, !tbaa !206
  %39 = add i64 %38, %.113
  %40 = load i64, ptr %5, align 8, !tbaa !194
  %41 = icmp ugt i64 %39, %40
  br i1 %41, label %13, label %._crit_edge, !llvm.loop !208

._crit_edge:                                      ; preds = %37, %3
  %.012.lcssa = phi i64 [ %2, %3 ], [ %.113, %37 ]
  %.0.lcssa = phi ptr [ %1, %3 ], [ %.1, %37 ]
  %42 = getelementptr inbounds nuw i8, ptr %0, i64 48
  tail call void @_ZNK6duckdb12optional_ptrINS_10FileBufferELb1EE10CheckValidEv(ptr noundef nonnull align 8 dereferenceable(8) %42)
  %43 = load ptr, ptr %42, align 8, !tbaa !104
  %44 = getelementptr inbounds nuw i8, ptr %43, i64 16
  %45 = load ptr, ptr %44, align 8, !tbaa !106
  %46 = getelementptr inbounds nuw i8, ptr %0, i64 80
  %47 = load i64, ptr %46, align 8, !tbaa !207
  %48 = getelementptr inbounds nuw i8, ptr %0, i64 8
  %49 = load ptr, ptr %48, align 8, !tbaa !190
  %50 = load ptr, ptr %49, align 8, !tbaa !43
  %51 = getelementptr inbounds nuw i8, ptr %50, i64 120
  %52 = tail call noundef i64 @_ZNK6duckdb12optional_idx8GetIndexEv(ptr noundef nonnull align 8 dereferenceable(8) %51)
  %53 = add i64 %52, -8
  %54 = lshr i64 %53, 6
  %55 = and i64 %54, 288230376151711736
  %56 = mul i64 %55, %47
  %57 = getelementptr inbounds nuw i8, ptr %45, i64 %56
  %58 = load i64, ptr %4, align 8, !tbaa !206
  %59 = getelementptr inbounds nuw i8, ptr %57, i64 %58
  tail call void @llvm.memcpy.p0.p0.i64(ptr align 1 %.0.lcssa, ptr align 1 %59, i64 %.012.lcssa, i1 false)
  %60 = load i64, ptr %4, align 8, !tbaa !206
  %61 = add i64 %60, %.012.lcssa
  store i64 %61, ptr %4, align 8, !tbaa !206
  ret void
}